(dp0
S'TORSDOF'
p1
I12
sS'autodock_element'
p2
c__builtin__
set
p3
((lp4
S'A'
p5
aS'C'
p6
aS'HD'
p7
aS'OA'
p8
atp9
Rp10
sS'center'
p11
(lp12
F0.063399999999999998
aF-0.0722
aF-0.0089999999999999993
as.