(dp0
S'TORSDOF'
p1
I5
sS'autodock_element'
p2
c__builtin__
set
p3
((lp4
S'A'
p5
aS'C'
p6
aS'OA'
p7
aS'N'
p8
aS'S'
p9
aS'HD'
p10
atp11
Rp12
sS'center'
p13
(lp14
F0.0453
aF0.0082000000000000007
aF0.054699999999999999
as.