(dp0
S'TORSDOF'
p1
I5
sS'autodock_element'
p2
c__builtin__
set
p3
((lp4
S'A'
p5
aS'C'
p6
aS'F'
p7
aS'NA'
p8
aS'OA'
p9
aS'N'
p10
aS'S'
p11
aS'HD'
p12
atp13
Rp14
sS'center'
p15
(lp16
F0.32790000000000002
aF-0.28789999999999999
aF0.107
as.