(dp0
S'TORSDOF'
p1
I4
sS'autodock_element'
p2
c__builtin__
set
p3
((lp4
S'A'
p5
aS'HD'
p6
aS'OA'
p7
atp8
Rp9
sS'center'
p10
(lp11
F-0.092600000000000002
aF-0.0040000000000000001
aF-0.018200000000000001
as.