(dp0
S'TORSDOF'
p1
I3
sS'autodock_element'
p2
c__builtin__
set
p3
((lp4
S'A'
p5
aS'C'
p6
aS'OA'
p7
aS'N'
p8
aS'S'
p9
aS'HD'
p10
atp11
Rp12
sS'center'
p13
(lp14
F0.038300000000000001
aF0.019800000000000002
aF0.044999999999999998
as.