(dp0
S'TORSDOF'
p1
I12
sS'autodock_element'
p2
c__builtin__
set
p3
((lp4
S'A'
p5
aS'C'
p6
aS'HD'
p7
aS'OA'
p8
atp9
Rp10
sS'center'
p11
(lp12
F-0.14990000000000001
aF0.13969999999999999
aF0.091899999999999996
as.