(dp0
S'TORSDOF'
p1
I10
sS'autodock_element'
p2
c__builtin__
set
p3
((lp4
S'A'
p5
aS'C'
p6
aS'HD'
p7
aS'OA'
p8
atp9
Rp10
sS'center'
p11
(lp12
F-0.0041999999999999997
aF-0.18679999999999999
aF0.078200000000000006
as.