(dp0
S'TORSDOF'
p1
I5
sS'autodock_element'
p2
c__builtin__
set
p3
((lp4
S'A'
p5
aS'C'
p6
aS'HD'
p7
aS'OA'
p8
atp9
Rp10
sS'center'
p11
(lp12
F-0.14860000000000001
aF-0.085199999999999998
aF0.019199999999999998
as.